target datalayout = "e-m:e-p270:32:32-p271:32:32-p272:64:64-i64:64-i128:128-f80:128-n8:16:32:64-S128"
target triple = "x86_64-pc-linux-gnu"

%struct._PKT_INFO = type { i32, %struct.nstime_t, i8, i8, i8, i8, i8, i32, i32, i16, i16, i16, i8, i8, i16, i16, i64, i64, i16, i8, i8, i32, i16, i16, i8, %struct._RRPD }
%struct.nstime_t = type { i64, i32 }
%struct._RRPD = type { i8, i8, i32, i64, i64, i8, i8, i32, %struct.nstime_t, i32, %struct.nstime_t, i32, %struct.nstime_t, i32, %struct.nstime_t, i32, i32, i32 }

; Function Attrs: null_pointer_is_valid sspstrong uwtable
define hidden i32 @decode_syn(ptr noundef %0, ptr noundef %1, ptr noundef %2) #0 {
  %4 = alloca ptr, align 8
  %5 = alloca ptr, align 8
  %6 = alloca ptr, align 8
  store ptr %0, ptr %4, align 8
  store ptr %1, ptr %5, align 8
  store ptr %2, ptr %6, align 8
  %7 = load ptr, ptr %6, align 8
  %8 = getelementptr inbounds nuw %struct._PKT_INFO, ptr %7, i32 0, i32 5
  %9 = load i8, ptr %8, align 1, !range !6, !noundef !7
  %10 = trunc i8 %9 to i1
  br i1 %10, label %11, label %15

11:                                               ; preds = %3
  %12 = load ptr, ptr %6, align 8
  %13 = getelementptr inbounds nuw %struct._PKT_INFO, ptr %12, i32 0, i32 25
  %14 = getelementptr inbounds nuw %struct._RRPD, ptr %13, i32 0, i32 0
  store i8 0, ptr %14, align 8
  br label %22

15:                                               ; preds = %3
  %16 = load ptr, ptr %6, align 8
  %17 = getelementptr inbounds nuw %struct._PKT_INFO, ptr %16, i32 0, i32 25
  %18 = getelementptr inbounds nuw %struct._RRPD, ptr %17, i32 0, i32 0
  store i8 1, ptr %18, align 8
  %19 = load ptr, ptr %6, align 8
  %20 = getelementptr inbounds nuw %struct._PKT_INFO, ptr %19, i32 0, i32 10
  %21 = load i16, ptr %20, align 2
  call void @add_detected_tcp_svc(i16 noundef zeroext %21)
  br label %22

22:                                               ; preds = %15, %11
  %23 = load ptr, ptr %6, align 8
  %24 = getelementptr inbounds nuw %struct._PKT_INFO, ptr %23, i32 0, i32 25
  %25 = getelementptr inbounds nuw %struct._RRPD, ptr %24, i32 0, i32 3
  store i64 1, ptr %25, align 8
  %26 = load ptr, ptr %6, align 8
  %27 = getelementptr inbounds nuw %struct._PKT_INFO, ptr %26, i32 0, i32 25
  %28 = getelementptr inbounds nuw %struct._RRPD, ptr %27, i32 0, i32 4
  store i64 1, ptr %28, align 8
  %29 = load ptr, ptr %6, align 8
  %30 = getelementptr inbounds nuw %struct._PKT_INFO, ptr %29, i32 0, i32 25
  %31 = getelementptr inbounds nuw %struct._RRPD, ptr %30, i32 0, i32 5
  store i8 1, ptr %31, align 8
  %32 = load ptr, ptr %6, align 8
  %33 = getelementptr inbounds nuw %struct._PKT_INFO, ptr %32, i32 0, i32 25
  %34 = getelementptr inbounds nuw %struct._RRPD, ptr %33, i32 0, i32 15
  store i32 1, ptr %34, align 8
  %35 = load ptr, ptr %6, align 8
  %36 = getelementptr inbounds nuw %struct._PKT_INFO, ptr %35, i32 0, i32 24
  store i8 1, ptr %36, align 4
  ret i32 1
}