; Function Attrs: null_pointer_is_valid sspstrong uwtable
define hidden noundef i32 @decode_syn(ptr noundef readnone captures(none) %0, ptr noundef readnone captures(none) %1, ptr noundef captures(none) initializes((84, 85), (88, 89), (96, 113), (208, 212)) %2) local_unnamed_addr #0 {
  %4 = getelementptr inbounds nuw i8, ptr %2, i64 27
  %5 = load i8, ptr %4, align 1, !range !6, !noundef !7
  %6 = trunc nuw i8 %5 to i1
  %7 = getelementptr inbounds nuw i8, ptr %2, i64 88
  br i1 %6, label %8, label %9

8:                                                ; preds = %3
  store i8 0, ptr %7, align 8
  br label %12

9:                                                ; preds = %3
  store i8 1, ptr %7, align 8
  %10 = getelementptr inbounds nuw i8, ptr %2, i64 42
  %11 = load i16, ptr %10, align 2
  tail call void @add_detected_tcp_svc(i16 noundef zeroext %11)
  br label %12

12:                                               ; preds = %9, %8
  %13 = getelementptr inbounds nuw i8, ptr %2, i64 96
  store i64 1, ptr %13, align 8
  %14 = getelementptr inbounds nuw i8, ptr %2, i64 104
  store i64 1, ptr %14, align 8
  %15 = getelementptr inbounds nuw i8, ptr %2, i64 112
  store i8 1, ptr %15, align 8
  %16 = getelementptr inbounds nuw i8, ptr %2, i64 208
  store i32 1, ptr %16, align 8
  %17 = getelementptr inbounds nuw i8, ptr %2, i64 84
  store i8 1, ptr %17, align 4
  ret i32 1
}